; Function Attrs: mustprogress uwtable
define range(i32 -1, -2147483648) i32 @zmq_recvmsg(ptr noundef %0, ptr noundef %1, i32 noundef %2) local_unnamed_addr #1 {
  %.not.i.i = icmp eq ptr %0, null
  br i1 %.not.i.i, label %_ZL16as_socket_base_tPv.exit.thread.i, label %4

4:                                                ; preds = %3
  %5 = tail call noundef zeroext i1 @_ZNK3zmq13socket_base_t9check_tagEv(ptr noundef nonnull align 8 dereferenceable(1825) %0)
  br i1 %5, label %_ZL16as_socket_base_tPv.exit.i, label %_ZL16as_socket_base_tPv.exit.thread.i

_ZL16as_socket_base_tPv.exit.thread.i:            ; preds = %4, %3
  %6 = tail call ptr @__errno_location() #20
  store i32 88, ptr %6, align 4, !tbaa !3
  br label %zmq_msg_recv.exit

_ZL16as_socket_base_tPv.exit.i:                   ; preds = %4
  %7 = tail call noundef i32 @_ZN3zmq13socket_base_t4recvEPNS_5msg_tEi(ptr noundef nonnull align 8 dereferenceable(1825) %0, ptr noundef %1, i32 noundef %2)
  %8 = icmp slt i32 %7, 0
  br i1 %8, label %zmq_msg_recv.exit, label %9, !prof !10

9:                                                ; preds = %_ZL16as_socket_base_tPv.exit.i
  %10 = tail call noundef i64 @_ZNK3zmq5msg_t4sizeEv(ptr noundef nonnull align 8 dereferenceable(64) %1)
  %11 = tail call i64 @llvm.umin.i64(i64 %10, i64 2147483647)
  %12 = trunc nuw nsw i64 %11 to i32
  br label %zmq_msg_recv.exit

zmq_msg_recv.exit:                                ; preds = %_ZL16as_socket_base_tPv.exit.thread.i, %_ZL16as_socket_base_tPv.exit.i, %9
  %.0.i = phi i32 [ -1, %_ZL16as_socket_base_tPv.exit.thread.i ], [ %12, %9 ], [ -1, %_ZL16as_socket_base_tPv.exit.i ]
  ret i32 %.0.i
}